; Function Attrs: mustprogress nounwind uwtable
define internal void @_ZNSt15_Sp_counted_ptrIPN12_GLOBAL__N_17BIFImplELN9__gnu_cxx12_Lock_policyE2EE10_M_disposeEv(ptr noundef nonnull readonly align 8 captures(none) dereferenceable(24) %0) unnamed_addr #8 align 2 personality ptr @__gxx_personality_v0 {
  %2 = getelementptr inbounds nuw i8, ptr %0, i64 16
  %3 = load ptr, ptr %2, align 8, !tbaa !56
  %4 = icmp eq ptr %3, null
  br i1 %4, label %14, label %5

5:                                                ; preds = %1
  %6 = getelementptr inbounds nuw i8, ptr %3, i64 16
  %7 = load ptr, ptr %6, align 8, !tbaa !30
  %8 = getelementptr inbounds nuw i8, ptr %3, i64 24
  %9 = load ptr, ptr %8, align 8, !tbaa !28
  %.not4.i.i.i.i.i = icmp eq ptr %7, %9
  br i1 %.not4.i.i.i.i.i, label %_ZSt8_DestroyIPN12_GLOBAL__N_17BIFImpl10UnitParamsES2_EvT_S4_RSaIT0_E.exit.i.i, label %.lr.ph.i.i.i.i.i

.lr.ph.i.i.i.i.i:                                 ; preds = %5, %.lr.ph.i.i.i.i.i
  %.05.i.i.i.i.i = phi ptr [ %12, %.lr.ph.i.i.i.i.i ], [ %7, %5 ]
  %10 = getelementptr inbounds nuw i8, ptr %.05.i.i.i.i.i, i64 104
  tail call void @_ZN2cv3MatD1Ev(ptr noundef nonnull align 8 dereferenceable(96) %10) #21
  %11 = getelementptr inbounds nuw i8, ptr %.05.i.i.i.i.i, i64 8
  tail call void @_ZN2cv3MatD1Ev(ptr noundef nonnull align 8 dereferenceable(96) %11) #21
  %12 = getelementptr inbounds nuw i8, ptr %.05.i.i.i.i.i, i64 200
  %.not.i.i.i.i.i = icmp eq ptr %12, %9
  br i1 %.not.i.i.i.i.i, label %_ZSt8_DestroyIPN12_GLOBAL__N_17BIFImpl10UnitParamsES2_EvT_S4_RSaIT0_E.exitthread-pre-split.i.i, label %.lr.ph.i.i.i.i.i, !llvm.loop !46

_ZSt8_DestroyIPN12_GLOBAL__N_17BIFImpl10UnitParamsES2_EvT_S4_RSaIT0_E.exitthread-pre-split.i.i: ; preds = %.lr.ph.i.i.i.i.i
  %.val.pr.i.i = load ptr, ptr %6, align 8, !tbaa !30
  br label %_ZSt8_DestroyIPN12_GLOBAL__N_17BIFImpl10UnitParamsES2_EvT_S4_RSaIT0_E.exit.i.i

_ZSt8_DestroyIPN12_GLOBAL__N_17BIFImpl10UnitParamsES2_EvT_S4_RSaIT0_E.exit.i.i: ; preds = %_ZSt8_DestroyIPN12_GLOBAL__N_17BIFImpl10UnitParamsES2_EvT_S4_RSaIT0_E.exitthread-pre-split.i.i, %5
  %.val.i.i = phi ptr [ %.val.pr.i.i, %_ZSt8_DestroyIPN12_GLOBAL__N_17BIFImpl10UnitParamsES2_EvT_S4_RSaIT0_E.exitthread-pre-split.i.i ], [ %7, %5 ]
  %.not.i.i.i.i = icmp eq ptr %.val.i.i, null
  br i1 %.not.i.i.i.i, label %_ZN12_GLOBAL__N_17BIFImplD2Ev.exit, label %13

13:                                               ; preds = %_ZSt8_DestroyIPN12_GLOBAL__N_17BIFImpl10UnitParamsES2_EvT_S4_RSaIT0_E.exit.i.i
  tail call void @_ZdlPv(ptr noundef nonnull %.val.i.i) #23
  br label %_ZN12_GLOBAL__N_17BIFImplD2Ev.exit

_ZN12_GLOBAL__N_17BIFImplD2Ev.exit:               ; preds = %_ZSt8_DestroyIPN12_GLOBAL__N_17BIFImpl10UnitParamsES2_EvT_S4_RSaIT0_E.exit.i.i, %13
  tail call void @_ZN2cv9AlgorithmD2Ev(ptr noundef nonnull align 8 dereferenceable(40) %3) #21
  tail call void @_ZdlPv(ptr noundef nonnull %3) #23
  br label %14

14:                                               ; preds = %_ZN12_GLOBAL__N_17BIFImplD2Ev.exit, %1
  ret void
}